target datalayout = "e-m:e-p270:32:32-p271:32:32-p272:64:64-i64:64-i128:128-f80:128-n8:16:32:64-S128"
target triple = "x86_64-pc-linux-gnu"

%struct.algo_time_t = type { i32, i32 }

; Function Attrs: nounwind uwtable
define internal i32 @ERR_isError(i64 noundef %0) #0 {
  %2 = alloca i64, align 8
  store i64 %0, ptr %2, align 8, !tbaa !9
  %3 = load i64, ptr %2, align 8, !tbaa !9
  %4 = icmp ugt i64 %3, -120
  %5 = zext i1 %4 to i32
  ret i32 %5
}

; Function Attrs: nounwind uwtable
define internal i64 @HUF_decompress4X1_DCtx_wksp(ptr noundef %0, ptr noundef %1, i64 noundef %2, ptr noundef %3, i64 noundef %4, ptr noundef %5, i64 noundef %6, i32 noundef %7) #0 {
  %9 = alloca i64, align 8
  %10 = alloca ptr, align 8
  %11 = alloca ptr, align 8
  %12 = alloca i64, align 8
  %13 = alloca ptr, align 8
  %14 = alloca i64, align 8
  %15 = alloca ptr, align 8
  %16 = alloca i64, align 8
  %17 = alloca i32, align 4
  %18 = alloca ptr, align 8
  %19 = alloca i64, align 8
  %20 = alloca i32, align 4
  store ptr %0, ptr %10, align 8, !tbaa !3
  store ptr %1, ptr %11, align 8, !tbaa !8
  store i64 %2, ptr %12, align 8, !tbaa !9
  store ptr %3, ptr %13, align 8, !tbaa !8
  store i64 %4, ptr %14, align 8, !tbaa !9
  store ptr %5, ptr %15, align 8, !tbaa !8
  store i64 %6, ptr %16, align 8, !tbaa !9
  store i32 %7, ptr %17, align 4, !tbaa !11
  call void @llvm.lifetime.start.p0(i64 8, ptr %18) #10
  %21 = load ptr, ptr %13, align 8, !tbaa !8
  store ptr %21, ptr %18, align 8, !tbaa !34
  call void @llvm.lifetime.start.p0(i64 8, ptr %19) #10
  %22 = load ptr, ptr %10, align 8, !tbaa !3
  %23 = load ptr, ptr %13, align 8, !tbaa !8
  %24 = load i64, ptr %14, align 8, !tbaa !9
  %25 = load ptr, ptr %15, align 8, !tbaa !8
  %26 = load i64, ptr %16, align 8, !tbaa !9
  %27 = load i32, ptr %17, align 4, !tbaa !11
  %28 = call i64 @HUF_readDTableX1_wksp(ptr noundef %22, ptr noundef %23, i64 noundef %24, ptr noundef %25, i64 noundef %26, i32 noundef %27)
  store i64 %28, ptr %19, align 8, !tbaa !9
  %29 = load i64, ptr %19, align 8, !tbaa !9
  %30 = call i32 @ERR_isError(i64 noundef %29)
  %31 = icmp ne i32 %30, 0
  br i1 %31, label %32, label %34

32:                                               ; preds = %8
  %33 = load i64, ptr %19, align 8, !tbaa !9
  store i64 %33, ptr %9, align 8
  store i32 1, ptr %20, align 4
  br label %53

34:                                               ; preds = %8
  %35 = load i64, ptr %19, align 8, !tbaa !9
  %36 = load i64, ptr %14, align 8, !tbaa !9
  %37 = icmp uge i64 %35, %36
  br i1 %37, label %38, label %39

38:                                               ; preds = %34
  store i64 -72, ptr %9, align 8
  store i32 1, ptr %20, align 4
  br label %53

39:                                               ; preds = %34
  %40 = load i64, ptr %19, align 8, !tbaa !9
  %41 = load ptr, ptr %18, align 8, !tbaa !34
  %42 = getelementptr inbounds nuw i8, ptr %41, i64 %40
  store ptr %42, ptr %18, align 8, !tbaa !34
  %43 = load i64, ptr %19, align 8, !tbaa !9
  %44 = load i64, ptr %14, align 8, !tbaa !9
  %45 = sub i64 %44, %43
  store i64 %45, ptr %14, align 8, !tbaa !9
  %46 = load ptr, ptr %11, align 8, !tbaa !8
  %47 = load i64, ptr %12, align 8, !tbaa !9
  %48 = load ptr, ptr %18, align 8, !tbaa !34
  %49 = load i64, ptr %14, align 8, !tbaa !9
  %50 = load ptr, ptr %10, align 8, !tbaa !3
  %51 = load i32, ptr %17, align 4, !tbaa !11
  %52 = call i64 @HUF_decompress4X1_usingDTable_internal(ptr noundef %46, i64 noundef %47, ptr noundef %48, i64 noundef %49, ptr noundef %50, i32 noundef %51)
  store i64 %52, ptr %9, align 8
  store i32 1, ptr %20, align 4
  br label %53

53:                                               ; preds = %39, %38, %32
  call void @llvm.lifetime.end.p0(i64 8, ptr %19) #10
  call void @llvm.lifetime.end.p0(i64 8, ptr %18) #10
  %54 = load i64, ptr %9, align 8
  ret i64 %54
}

; Function Attrs: nounwind uwtable
define internal i64 @HUF_decompress4X2_DCtx_wksp(ptr noundef %0, ptr noundef %1, i64 noundef %2, ptr noundef %3, i64 noundef %4, ptr noundef %5, i64 noundef %6, i32 noundef %7) #0 {
  %9 = alloca i64, align 8
  %10 = alloca ptr, align 8
  %11 = alloca ptr, align 8
  %12 = alloca i64, align 8
  %13 = alloca ptr, align 8
  %14 = alloca i64, align 8
  %15 = alloca ptr, align 8
  %16 = alloca i64, align 8
  %17 = alloca i32, align 4
  %18 = alloca ptr, align 8
  %19 = alloca i64, align 8
  %20 = alloca i32, align 4
  store ptr %0, ptr %10, align 8, !tbaa !3
  store ptr %1, ptr %11, align 8, !tbaa !8
  store i64 %2, ptr %12, align 8, !tbaa !9
  store ptr %3, ptr %13, align 8, !tbaa !8
  store i64 %4, ptr %14, align 8, !tbaa !9
  store ptr %5, ptr %15, align 8, !tbaa !8
  store i64 %6, ptr %16, align 8, !tbaa !9
  store i32 %7, ptr %17, align 4, !tbaa !11
  call void @llvm.lifetime.start.p0(i64 8, ptr %18) #10
  %21 = load ptr, ptr %13, align 8, !tbaa !8
  store ptr %21, ptr %18, align 8, !tbaa !34
  call void @llvm.lifetime.start.p0(i64 8, ptr %19) #10
  %22 = load ptr, ptr %10, align 8, !tbaa !3
  %23 = load ptr, ptr %13, align 8, !tbaa !8
  %24 = load i64, ptr %14, align 8, !tbaa !9
  %25 = load ptr, ptr %15, align 8, !tbaa !8
  %26 = load i64, ptr %16, align 8, !tbaa !9
  %27 = load i32, ptr %17, align 4, !tbaa !11
  %28 = call i64 @HUF_readDTableX2_wksp(ptr noundef %22, ptr noundef %23, i64 noundef %24, ptr noundef %25, i64 noundef %26, i32 noundef %27)
  store i64 %28, ptr %19, align 8, !tbaa !9
  %29 = load i64, ptr %19, align 8, !tbaa !9
  %30 = call i32 @ERR_isError(i64 noundef %29)
  %31 = icmp ne i32 %30, 0
  br i1 %31, label %32, label %34

32:                                               ; preds = %8
  %33 = load i64, ptr %19, align 8, !tbaa !9
  store i64 %33, ptr %9, align 8
  store i32 1, ptr %20, align 4
  br label %53

34:                                               ; preds = %8
  %35 = load i64, ptr %19, align 8, !tbaa !9
  %36 = load i64, ptr %14, align 8, !tbaa !9
  %37 = icmp uge i64 %35, %36
  br i1 %37, label %38, label %39

38:                                               ; preds = %34
  store i64 -72, ptr %9, align 8
  store i32 1, ptr %20, align 4
  br label %53

39:                                               ; preds = %34
  %40 = load i64, ptr %19, align 8, !tbaa !9
  %41 = load ptr, ptr %18, align 8, !tbaa !34
  %42 = getelementptr inbounds nuw i8, ptr %41, i64 %40
  store ptr %42, ptr %18, align 8, !tbaa !34
  %43 = load i64, ptr %19, align 8, !tbaa !9
  %44 = load i64, ptr %14, align 8, !tbaa !9
  %45 = sub i64 %44, %43
  store i64 %45, ptr %14, align 8, !tbaa !9
  %46 = load ptr, ptr %11, align 8, !tbaa !8
  %47 = load i64, ptr %12, align 8, !tbaa !9
  %48 = load ptr, ptr %18, align 8, !tbaa !34
  %49 = load i64, ptr %14, align 8, !tbaa !9
  %50 = load ptr, ptr %10, align 8, !tbaa !3
  %51 = load i32, ptr %17, align 4, !tbaa !11
  %52 = call i64 @HUF_decompress4X2_usingDTable_internal(ptr noundef %46, i64 noundef %47, ptr noundef %48, i64 noundef %49, ptr noundef %50, i32 noundef %51)
  store i64 %52, ptr %9, align 8
  store i32 1, ptr %20, align 4
  br label %53

53:                                               ; preds = %39, %38, %32
  call void @llvm.lifetime.end.p0(i64 8, ptr %19) #10
  call void @llvm.lifetime.end.p0(i64 8, ptr %18) #10
  %54 = load i64, ptr %9, align 8
  ret i64 %54
}

; Function Attrs: nounwind uwtable
define i32 @HUF_selectDecoder(i64 noundef %0, i64 noundef %1) #0 {
  %3 = alloca i64, align 8
  %4 = alloca i64, align 8
  %5 = alloca i32, align 4
  %6 = alloca i32, align 4
  %7 = alloca i32, align 4
  %8 = alloca i32, align 4
  store i64 %0, ptr %3, align 8, !tbaa !9
  store i64 %1, ptr %4, align 8, !tbaa !9
  call void @llvm.lifetime.start.p0(i64 4, ptr %5) #10
  %9 = load i64, ptr %4, align 8, !tbaa !9
  %10 = load i64, ptr %3, align 8, !tbaa !9
  %11 = icmp uge i64 %9, %10
  br i1 %11, label %12, label %13

12:                                               ; preds = %2
  br label %19

13:                                               ; preds = %2
  %14 = load i64, ptr %4, align 8, !tbaa !9
  %15 = mul i64 %14, 16
  %16 = load i64, ptr %3, align 8, !tbaa !9
  %17 = udiv i64 %15, %16
  %18 = trunc i64 %17 to i32
  br label %19

19:                                               ; preds = %13, %12
  %20 = phi i32 [ 15, %12 ], [ %18, %13 ]
  store i32 %20, ptr %5, align 4, !tbaa !11
  call void @llvm.lifetime.start.p0(i64 4, ptr %6) #10
  %21 = load i64, ptr %3, align 8, !tbaa !9
  %22 = lshr i64 %21, 8
  %23 = trunc i64 %22 to i32
  store i32 %23, ptr %6, align 4, !tbaa !11
  call void @llvm.lifetime.start.p0(i64 4, ptr %7) #10
  %24 = load i32, ptr %5, align 4, !tbaa !11
  %25 = zext i32 %24 to i64
  %26 = getelementptr inbounds nuw [16 x [2 x %struct.algo_time_t]], ptr @algoTime, i64 0, i64 %25
  %27 = getelementptr inbounds [2 x %struct.algo_time_t], ptr %26, i64 0, i64 0
  %28 = getelementptr inbounds nuw %struct.algo_time_t, ptr %27, i32 0, i32 0
  %29 = load i32, ptr %28, align 16, !tbaa !49
  %30 = load i32, ptr %5, align 4, !tbaa !11
  %31 = zext i32 %30 to i64
  %32 = getelementptr inbounds nuw [16 x [2 x %struct.algo_time_t]], ptr @algoTime, i64 0, i64 %31
  %33 = getelementptr inbounds [2 x %struct.algo_time_t], ptr %32, i64 0, i64 0
  %34 = getelementptr inbounds nuw %struct.algo_time_t, ptr %33, i32 0, i32 1
  %35 = load i32, ptr %34, align 4, !tbaa !51
  %36 = load i32, ptr %6, align 4, !tbaa !11
  %37 = mul i32 %35, %36
  %38 = add i32 %29, %37
  store i32 %38, ptr %7, align 4, !tbaa !11
  call void @llvm.lifetime.start.p0(i64 4, ptr %8) #10
  %39 = load i32, ptr %5, align 4, !tbaa !11
  %40 = zext i32 %39 to i64
  %41 = getelementptr inbounds nuw [16 x [2 x %struct.algo_time_t]], ptr @algoTime, i64 0, i64 %40
  %42 = getelementptr inbounds [2 x %struct.algo_time_t], ptr %41, i64 0, i64 1
  %43 = getelementptr inbounds nuw %struct.algo_time_t, ptr %42, i32 0, i32 0
  %44 = load i32, ptr %43, align 8, !tbaa !49
  %45 = load i32, ptr %5, align 4, !tbaa !11
  %46 = zext i32 %45 to i64
  %47 = getelementptr inbounds nuw [16 x [2 x %struct.algo_time_t]], ptr @algoTime, i64 0, i64 %46
  %48 = getelementptr inbounds [2 x %struct.algo_time_t], ptr %47, i64 0, i64 1
  %49 = getelementptr inbounds nuw %struct.algo_time_t, ptr %48, i32 0, i32 1
  %50 = load i32, ptr %49, align 4, !tbaa !51
  %51 = load i32, ptr %6, align 4, !tbaa !11
  %52 = mul i32 %50, %51
  %53 = add i32 %44, %52
  store i32 %53, ptr %8, align 4, !tbaa !11
  %54 = load i32, ptr %8, align 4, !tbaa !11
  %55 = lshr i32 %54, 5
  %56 = load i32, ptr %8, align 4, !tbaa !11
  %57 = add i32 %56, %55
  store i32 %57, ptr %8, align 4, !tbaa !11
  %58 = load i32, ptr %8, align 4, !tbaa !11
  %59 = load i32, ptr %7, align 4, !tbaa !11
  %60 = icmp ult i32 %58, %59
  %61 = zext i1 %60 to i32
  call void @llvm.lifetime.end.p0(i64 4, ptr %8) #10
  call void @llvm.lifetime.end.p0(i64 4, ptr %7) #10
  call void @llvm.lifetime.end.p0(i64 4, ptr %6) #10
  call void @llvm.lifetime.end.p0(i64 4, ptr %5) #10
  ret i32 %61
}

; Function Attrs: nounwind uwtable
define i64 @HUF_decompress4X_hufOnly_wksp(ptr noundef %0, ptr noundef %1, i64 noundef %2, ptr noundef %3, i64 noundef %4, ptr noundef %5, i64 noundef %6, i32 noundef %7) #0 {
  %9 = alloca i64, align 8
  %10 = alloca ptr, align 8
  %11 = alloca ptr, align 8
  %12 = alloca i64, align 8
  %13 = alloca ptr, align 8
  %14 = alloca i64, align 8
  %15 = alloca ptr, align 8
  %16 = alloca i64, align 8
  %17 = alloca i32, align 4
  %18 = alloca i32, align 4
  store ptr %0, ptr %10, align 8, !tbaa !3
  store ptr %1, ptr %11, align 8, !tbaa !8
  store i64 %2, ptr %12, align 8, !tbaa !9
  store ptr %3, ptr %13, align 8, !tbaa !8
  store i64 %4, ptr %14, align 8, !tbaa !9
  store ptr %5, ptr %15, align 8, !tbaa !8
  store i64 %6, ptr %16, align 8, !tbaa !9
  store i32 %7, ptr %17, align 4, !tbaa !11
  %19 = load i64, ptr %12, align 8, !tbaa !9
  %20 = icmp eq i64 %19, 0
  br i1 %20, label %21, label %22

21:                                               ; preds = %8
  store i64 -70, ptr %9, align 8
  br label %54

22:                                               ; preds = %8
  %23 = load i64, ptr %14, align 8, !tbaa !9
  %24 = icmp eq i64 %23, 0
  br i1 %24, label %25, label %26

25:                                               ; preds = %22
  store i64 -20, ptr %9, align 8
  br label %54

26:                                               ; preds = %22
  call void @llvm.lifetime.start.p0(i64 4, ptr %18) #10
  %27 = load i64, ptr %12, align 8, !tbaa !9
  %28 = load i64, ptr %14, align 8, !tbaa !9
  %29 = call i32 @HUF_selectDecoder(i64 noundef %27, i64 noundef %28)
  store i32 %29, ptr %18, align 4, !tbaa !11
  %30 = load i32, ptr %18, align 4, !tbaa !11
  %31 = icmp ne i32 %30, 0
  br i1 %31, label %32, label %42

32:                                               ; preds = %26
  %33 = load ptr, ptr %10, align 8, !tbaa !3
  %34 = load ptr, ptr %11, align 8, !tbaa !8
  %35 = load i64, ptr %12, align 8, !tbaa !9
  %36 = load ptr, ptr %13, align 8, !tbaa !8
  %37 = load i64, ptr %14, align 8, !tbaa !9
  %38 = load ptr, ptr %15, align 8, !tbaa !8
  %39 = load i64, ptr %16, align 8, !tbaa !9
  %40 = load i32, ptr %17, align 4, !tbaa !11
  %41 = call i64 @HUF_decompress4X2_DCtx_wksp(ptr noundef %33, ptr noundef %34, i64 noundef %35, ptr noundef %36, i64 noundef %37, ptr noundef %38, i64 noundef %39, i32 noundef %40)
  br label %52

42:                                               ; preds = %26
  %43 = load ptr, ptr %10, align 8, !tbaa !3
  %44 = load ptr, ptr %11, align 8, !tbaa !8
  %45 = load i64, ptr %12, align 8, !tbaa !9
  %46 = load ptr, ptr %13, align 8, !tbaa !8
  %47 = load i64, ptr %14, align 8, !tbaa !9
  %48 = load ptr, ptr %15, align 8, !tbaa !8
  %49 = load i64, ptr %16, align 8, !tbaa !9
  %50 = load i32, ptr %17, align 4, !tbaa !11
  %51 = call i64 @HUF_decompress4X1_DCtx_wksp(ptr noundef %43, ptr noundef %44, i64 noundef %45, ptr noundef %46, i64 noundef %47, ptr noundef %48, i64 noundef %49, i32 noundef %50)
  br label %52

52:                                               ; preds = %42, %32
  %53 = phi i64 [ %41, %32 ], [ %51, %42 ]
  store i64 %53, ptr %9, align 8
  call void @llvm.lifetime.end.p0(i64 4, ptr %18) #10
  br label %54

54:                                               ; preds = %52, %25, %21
  %55 = load i64, ptr %9, align 8
  ret i64 %55
}