; Function Attrs: nounwind uwtable
define i64 @HUF_decompress4X_hufOnly_wksp(ptr noundef %0, ptr noundef %1, i64 noundef %2, ptr noundef %3, i64 noundef %4, ptr noundef %5, i64 noundef %6, i32 noundef %7) local_unnamed_addr #0 {
  %9 = icmp eq i64 %2, 0
  br i1 %9, label %HUF_decompress4X2_DCtx_wksp.exit, label %10

10:                                               ; preds = %8
  %11 = icmp eq i64 %4, 0
  br i1 %11, label %HUF_decompress4X2_DCtx_wksp.exit, label %12

12:                                               ; preds = %10
  %.not.i = icmp ult i64 %4, %2
  br i1 %.not.i, label %13, label %HUF_selectDecoder.exit

13:                                               ; preds = %12
  %14 = shl i64 %4, 4
  %15 = udiv i64 %14, %2
  %16 = and i64 %15, 4294967295
  br label %HUF_selectDecoder.exit

HUF_selectDecoder.exit:                           ; preds = %12, %13
  %17 = phi i64 [ %16, %13 ], [ 15, %12 ]
  %18 = lshr i64 %2, 8
  %19 = trunc i64 %18 to i32
  %20 = getelementptr inbounds nuw [16 x [2 x %struct.algo_time_t]], ptr @algoTime, i64 0, i64 %17
  %21 = load i32, ptr %20, align 16, !tbaa !52
  %22 = getelementptr inbounds nuw i8, ptr %20, i64 4
  %23 = load i32, ptr %22, align 4, !tbaa !54
  %24 = mul i32 %23, %19
  %25 = add i32 %24, %21
  %26 = getelementptr inbounds nuw i8, ptr %20, i64 8
  %27 = load i32, ptr %26, align 8, !tbaa !52
  %28 = getelementptr inbounds nuw i8, ptr %20, i64 12
  %29 = load i32, ptr %28, align 4, !tbaa !54
  %30 = mul i32 %29, %19
  %31 = add i32 %30, %27
  %32 = lshr i32 %31, 5
  %33 = add i32 %32, %31
  %.not = icmp ult i32 %33, %25
  br i1 %.not, label %34, label %42

34:                                               ; preds = %HUF_selectDecoder.exit
  %35 = tail call i64 @HUF_readDTableX2_wksp(ptr noundef %0, ptr noundef %3, i64 noundef range(i64 1, 0) %4, ptr noundef %5, i64 noundef %6, i32 noundef %7)
  %36 = icmp ult i64 %35, -119
  br i1 %36, label %37, label %HUF_decompress4X2_DCtx_wksp.exit

37:                                               ; preds = %34
  %.not23.i = icmp ult i64 %35, %4
  br i1 %.not23.i, label %38, label %HUF_decompress4X2_DCtx_wksp.exit

38:                                               ; preds = %37
  %39 = getelementptr inbounds nuw i8, ptr %3, i64 %35
  %40 = sub nuw i64 %4, %35
  %41 = tail call fastcc i64 @HUF_decompress4X2_usingDTable_internal(ptr noundef %1, i64 noundef range(i64 1, 0) %2, ptr noundef %39, i64 noundef %40, ptr noundef %0, i32 noundef %7)
  br label %HUF_decompress4X2_DCtx_wksp.exit

42:                                               ; preds = %HUF_selectDecoder.exit
  %43 = tail call i64 @HUF_readDTableX1_wksp(ptr noundef %0, ptr noundef %3, i64 noundef range(i64 1, 0) %4, ptr noundef %5, i64 noundef %6, i32 noundef %7)
  %44 = icmp ult i64 %43, -119
  br i1 %44, label %45, label %HUF_decompress4X2_DCtx_wksp.exit

45:                                               ; preds = %42
  %.not23.i24 = icmp ult i64 %43, %4
  br i1 %.not23.i24, label %46, label %HUF_decompress4X2_DCtx_wksp.exit

46:                                               ; preds = %45
  %47 = getelementptr inbounds nuw i8, ptr %3, i64 %43
  %48 = sub nuw i64 %4, %43
  %49 = tail call fastcc i64 @HUF_decompress4X1_usingDTable_internal(ptr noundef %1, i64 noundef range(i64 1, 0) %2, ptr noundef %47, i64 noundef %48, ptr noundef %0, i32 noundef %7)
  br label %HUF_decompress4X2_DCtx_wksp.exit

HUF_decompress4X2_DCtx_wksp.exit:                 ; preds = %46, %45, %42, %38, %37, %34, %10, %8
  %.0 = phi i64 [ -70, %8 ], [ -20, %10 ], [ %41, %38 ], [ %35, %34 ], [ -72, %37 ], [ %49, %46 ], [ %43, %42 ], [ -72, %45 ]
  ret i64 %.0
}